; Function Attrs: mustprogress nounwind uwtable
define dso_local noundef zeroext i1 @_ZN4llvm29BlockFrequencyInfoWrapperPass13runOnFunctionERNS_8FunctionE(ptr noundef nonnull align 8 dereferenceable(40) %0, ptr noundef nonnull align 8 dereferenceable(136) %1) unnamed_addr #0 align 2 {
  %3 = getelementptr inbounds nuw i8, ptr %0, i64 8
  %4 = load ptr, ptr %3, align 8
  %5 = load ptr, ptr %4, align 8
  %6 = getelementptr inbounds nuw i8, ptr %4, i64 8
  %7 = load ptr, ptr %6, align 8
  %.not11.i.i.i = icmp ne ptr %5, %7
  tail call void @llvm.assume(i1 %.not11.i.i.i)
  %8 = load ptr, ptr %5, align 8
  %9 = icmp eq ptr %8, @_ZN4llvm32BranchProbabilityInfoWrapperPass2IDE
  br i1 %9, label %_ZNK4llvm4Pass11getAnalysisINS_32BranchProbabilityInfoWrapperPassEEERT_v.exit, label %.lr.ph.i.i.i

.lr.ph.i.i.i:                                     ; preds = %2, %.lr.ph.i.i.i
  %.sroa.07.012.i4.i.i = phi ptr [ %10, %.lr.ph.i.i.i ], [ %5, %2 ]
  %10 = getelementptr inbounds i8, ptr %.sroa.07.012.i4.i.i, i64 16
  %.not.i.i.i = icmp ne ptr %10, %7
  tail call void @llvm.assume(i1 %.not.i.i.i)
  %11 = load ptr, ptr %10, align 8
  %12 = icmp eq ptr %11, @_ZN4llvm32BranchProbabilityInfoWrapperPass2IDE
  br i1 %12, label %_ZNK4llvm4Pass11getAnalysisINS_32BranchProbabilityInfoWrapperPassEEERT_v.exit, label %.lr.ph.i.i.i

_ZNK4llvm4Pass11getAnalysisINS_32BranchProbabilityInfoWrapperPassEEERT_v.exit: ; preds = %.lr.ph.i.i.i, %2
  %.sroa.07.012.i.lcssa.i.i = phi ptr [ %5, %2 ], [ %10, %.lr.ph.i.i.i ]
  %13 = getelementptr inbounds nuw i8, ptr %.sroa.07.012.i.lcssa.i.i, i64 8
  %14 = load ptr, ptr %13, align 8
  %15 = load ptr, ptr %14, align 8
  %16 = getelementptr inbounds i8, ptr %15, i64 96
  %17 = load ptr, ptr %16, align 8
  %18 = tail call noundef nonnull align 8 dereferenceable(280) ptr %17(ptr noundef nonnull align 8 dereferenceable(28) %14, ptr noundef nonnull @_ZN4llvm32BranchProbabilityInfoWrapperPass2IDE) #23
  %19 = load ptr, ptr %3, align 8
  %20 = load ptr, ptr %19, align 8
  %21 = getelementptr inbounds nuw i8, ptr %19, i64 8
  %22 = load ptr, ptr %21, align 8
  %.not11.i.i.i4 = icmp ne ptr %20, %22
  tail call void @llvm.assume(i1 %.not11.i.i.i4)
  %23 = load ptr, ptr %20, align 8
  %24 = icmp eq ptr %23, @_ZN4llvm19LoopInfoWrapperPass2IDE
  br i1 %24, label %_ZNK4llvm4Pass11getAnalysisINS_19LoopInfoWrapperPassEEERT_v.exit, label %.lr.ph.i.i.i5

.lr.ph.i.i.i5:                                    ; preds = %_ZNK4llvm4Pass11getAnalysisINS_32BranchProbabilityInfoWrapperPassEEERT_v.exit, %.lr.ph.i.i.i5
  %.sroa.07.012.i4.i.i6 = phi ptr [ %25, %.lr.ph.i.i.i5 ], [ %20, %_ZNK4llvm4Pass11getAnalysisINS_32BranchProbabilityInfoWrapperPassEEERT_v.exit ]
  %25 = getelementptr inbounds i8, ptr %.sroa.07.012.i4.i.i6, i64 16
  %.not.i.i.i7 = icmp ne ptr %25, %22
  tail call void @llvm.assume(i1 %.not.i.i.i7)
  %26 = load ptr, ptr %25, align 8
  %27 = icmp eq ptr %26, @_ZN4llvm19LoopInfoWrapperPass2IDE
  br i1 %27, label %_ZNK4llvm4Pass11getAnalysisINS_19LoopInfoWrapperPassEEERT_v.exit, label %.lr.ph.i.i.i5

_ZNK4llvm4Pass11getAnalysisINS_19LoopInfoWrapperPassEEERT_v.exit: ; preds = %.lr.ph.i.i.i5, %_ZNK4llvm4Pass11getAnalysisINS_32BranchProbabilityInfoWrapperPassEEERT_v.exit
  %.sroa.07.012.i.lcssa.i.i8 = phi ptr [ %20, %_ZNK4llvm4Pass11getAnalysisINS_32BranchProbabilityInfoWrapperPassEEERT_v.exit ], [ %25, %.lr.ph.i.i.i5 ]
  %28 = getelementptr inbounds nuw i8, ptr %18, i64 32
  %29 = getelementptr inbounds nuw i8, ptr %.sroa.07.012.i.lcssa.i.i8, i64 8
  %30 = load ptr, ptr %29, align 8
  %31 = load ptr, ptr %30, align 8
  %32 = getelementptr inbounds i8, ptr %31, i64 96
  %33 = load ptr, ptr %32, align 8
  %34 = tail call noundef nonnull align 8 dereferenceable(176) ptr %33(ptr noundef nonnull align 8 dereferenceable(28) %30, ptr noundef nonnull @_ZN4llvm19LoopInfoWrapperPass2IDE) #23
  %35 = getelementptr inbounds nuw i8, ptr %34, i64 32
  %36 = getelementptr inbounds nuw i8, ptr %0, i64 32
  tail call void @_ZN4llvm18BlockFrequencyInfo9calculateERKNS_8FunctionERKNS_21BranchProbabilityInfoERKNS_8LoopInfoE(ptr noundef nonnull align 8 dereferenceable(8) %36, ptr noundef nonnull align 8 dereferenceable(136) %1, ptr noundef nonnull align 8 dereferenceable(248) %28, ptr noundef nonnull align 8 dereferenceable(144) %35)
  ret i1 false
}